(lp0
((lp1
I0
aF0.0
aF0.0
aF0.0
aF19.864
aF0.0
aF489.681
a(lp2
(lp3
F2.321039810289505
aF4.6248905262561975
aF6.269948339964162
aa(lp4
F0.597496989775022
aF0.632100252001099
aF0.6688027648854988
aa(lp5
F-0.22287032438967552
aF-0.4820384104830606
aF-0.9642644854160098
aacnumpy.core.multiarray
scalar
p6
(cnumpy
dtype
p7
(S'f8'
p8
I0
I1
tp9
Rp10
(I3
S'<'
p11
NNNI-1
I-1
I0
tp12
bS'\\H\xe8\xb1\xfd\xa1P@'
p13
tp14
Rp15
tp16
a((lp17
I0
aF0.0
aF0.0
aF0.0
aF18.784
aF0.0
aF482.025
a(lp18
(lp19
F2.5085833625659624
aF4.620301658352161
aF6.018038089061002
aa(lp20
F0.6000649716676114
aF0.6330580907400216
aF0.6799851482637956
aa(lp21
F-0.2853794931003097
aF-0.47083092400032045
aF-0.8757588643618525
aag6
(g10
S'\xaeI\x95\xcd!FQ@'
p22
tp23
Rp24
tp25
a((lp26
I0
aF0.0
aF0.0
aF0.0
aF17.862
aF0.0
aF484.871
a(lp27
(lp28
F2.9519991500830463
aF4.498913181798126
aF5.9971130382706725
aa(lp29
F0.600081636171479
aF0.6360893789549122
aF0.6719123683524866
aa(lp30
F-0.18683537450968823
aF-0.43316654872400295
aF-1.002304146366817
aag6
(g10
S'\xc8|T"\xf6\xbfP@'
p31
tp32
Rp33
tp34
a((lp35
I0
aF0.0
aF0.0
aF0.0
aF17.363
aF0.0
aF498.277
a(lp36
(lp37
F2.904599965746778
aF4.7068352137616065
aF6.066994366793988
aa(lp38
F0.5958472005770301
aF0.6261316411721141
aF0.6724539830451227
aa(lp39
F-0.25917662055041474
aF-0.5058611501997913
aF-0.8171653544804037
aag6
(g10
S'\x89a\xed}\x9e\xc6P@'
p40
tp41
Rp42
tp43
a((lp44
I0
aF0.0
aF0.0
aF0.0
aF18.191
aF0.0
aF500.108
a(lp45
(lp46
F2.3545274485970324
aF4.652879677039858
aF6.0215412468231415
aa(lp47
F0.5982555022701419
aF0.6263414106518931
aF0.6720682195689839
aa(lp48
F-0.20405459042130158
aF-0.4578856157127093
aF-0.8863645764129968
aag6
(g10
S'\xc1Cus\xcc\x18Q@'
p49
tp50
Rp51
tp52
a((lp53
I0
aF0.0
aF0.0
aF0.0
aF17.596
aF0.0
aF486.467
a(lp54
(lp55
F2.862900037973834
aF4.779416828313761
aF6.548215885348454
aa(lp56
F0.5948795016007831
aF0.6397858989026399
aF0.677602241400694
aa(lp57
F-0.29207967347235125
aF-0.431444571629186
aF-0.8547895245882199
aag6
(g10
S'I\xdd$K\x16\x9aP@'
p58
tp59
Rp60
tp61
a((lp62
I0
aF0.0
aF0.0
aF0.0
aF17.424
aF0.0
aF489.359
a(lp63
(lp64
F2.642627195251967
aF4.749377790016611
aF5.919972817826799
aa(lp65
F0.5992620684272176
aF0.6333449458869957
aF0.6678761766425275
aa(lp66
F-0.28628923208006435
aF-0.5354760152027301
aF-0.940496134351633
aag6
(g10
S'a\xdaK\xe7\x9aVP@'
p67
tp68
Rp69
tp70
a((lp71
I0
aF0.0
aF0.0
aF0.0
aF18.237
aF0.0
aF489.479
a(lp72
(lp73
F2.840907758537212
aF4.461955874263329
aF6.551247456312188
aa(lp74
F0.6056865434475868
aF0.6299610615217934
aF0.6769634065176605
aa(lp75
F-0.26500097344091095
aF-0.5085829815348197
aF-1.075769005813879
aag6
(g10
S'\xad)\xed\xad\xf5\x9dQ@'
p76
tp77
Rp78
tp79
a((lp80
I0
aF0.0
aF0.0
aF0.0
aF17.549
aF0.0
aF490.049
a(lp81
(lp82
F3.274071521095517
aF4.6311863273863505
aF5.894887727028795
aa(lp83
F0.603427101177209
aF0.6258291635404573
aF0.6636537594500967
aa(lp84
F-0.21190895018427686
aF-0.5537806039383338
aF-0.8974179030114361
aag6
(g10
S'\x07\x88\x11\xa0\xe9\xccP@'
p85
tp86
Rp87
tp88
a((lp89
I0
aF0.0
aF0.0
aF0.0
aF17.315
aF0.0
aF500.485
a(lp90
(lp91
F2.892070123230332
aF4.550272770096962
aF6.580437661320451
aa(lp92
F0.593442596235991
aF0.6264046980866655
aF0.6772698736452282
aa(lp93
F-0.24068775529097405
aF-0.5508335270394294
aF-0.7794211116456549
aag6
(g10
S'\xd9\xb2\xd7\xac\x10\x81P@'
p94
tp95
Rp96
tp97
a((lp98
I0
aF0.0
aF0.0
aF0.0
aF17.925
aF0.0
aF492.405
a(lp99
(lp100
F3.023923694657311
aF4.455871036463129
aF6.198241976709209
aa(lp101
F0.6057517132100438
aF0.6222518825170527
aF0.6624513544314815
aa(lp102
F-0.2362822202937126
aF-0.4625912694184752
aF-0.9119487205333361
aag6
(g10
S'\xd9+?\xd2\x81\x97P@'
p103
tp104
Rp105
tp106
a((lp107
I0
aF0.0
aF0.0
aF0.0
aF17.924
aF0.0
aF500.329
a(lp108
(lp109
F2.9622955918290845
aF4.691791988554345
aF5.924057226202136
aa(lp110
F0.5939120099067436
aF0.630463285479623
aF0.6608584032818136
aa(lp111
F-0.24140448559151556
aF-0.5237137086704865
aF-0.9168748391899996
aag6
(g10
S'\xa0^G\x07\xf6\xdaO@'
p112
tp113
Rp114
tp115
a((lp116
I0
aF0.0
aF0.0
aF0.0
aF18.972
aF0.0
aF499.703
a(lp117
(lp118
F2.5238703768575395
aF4.82679374447662
aF6.311848526002469
aa(lp119
F0.6103278553831242
aF0.6346157959332597
aF0.6776850636902473
aa(lp120
F-0.2999993771913789
aF-0.48374595270178106
aF-0.8225319981091659
aag6
(g10
S'\xd6\xf0@\xf2TGQ@'
p121
tp122
Rp123
tp124
a((lp125
I0
aF0.0
aF0.0
aF0.0
aF18.081
aF0.0
aF505.626
a(lp126
(lp127
F2.8248421877084535
aF4.320039316431519
aF5.820660410850449
aa(lp128
F0.5987034733533589
aF0.6264391626136979
aF0.6783468489307125
aa(lp129
F-0.3330498838784103
aF-0.4820979642100643
aF-1.0690185195888542
aag6
(g10
S'\n\x18\x9e+-GQ@'
p130
tp131
Rp132
tp133
a((lp134
I0
aF0.0
aF0.0
aF0.0
aF19.113
aF0.0
aF509.521
a(lp135
(lp136
F2.2568218447109394
aF4.344349861171981
aF5.965793722550023
aa(lp137
F0.5987671678266734
aF0.6332321446607776
aF0.6667369529076068
aa(lp138
F-0.1827175442236946
aF-0.5474838602653291
aF-0.8789908053942205
aag6
(g10
S'V\xec\\\x1bU\xaaP@'
p139
tp140
Rp141
tp142
a((lp143
I0
aF0.0
aF0.0
aF0.0
aF17.503
aF0.0
aF510.578
a(lp144
(lp145
F3.6457565500223357
aF4.896628229724346
aF5.9194151734209655
aa(lp146
F0.605004519510088
aF0.6328949111739599
aF0.6690416534233001
aa(lp147
F-0.24520770648598403
aF-0.5792151945264573
aF-0.9505707284647599
aag6
(g10
S'p\x86\x9c\xfa\xc2SQ@'
p148
tp149
Rp150
tp151
a((lp152
I0
aF0.0
aF0.0
aF0.0
aF17.659
aF0.0
aF515.272
a(lp153
(lp154
F2.9615630732133744
aF4.8032188325950465
aF6.303500709185487
aa(lp155
F0.5983841011369812
aF0.6271281189941484
aF0.6708772459155962
aa(lp156
F-0.2797898755988146
aF-0.5084063451131106
aF-0.9799597977508203
aag6
(g10
S'O\xb1\xc1\xcc\xa2\xb8Q@'
p157
tp158
Rp159
tp160
a((lp161
I0
aF0.0
aF0.0
aF0.0
aF17.831
aF0.0
aF535.96
a(lp162
(lp163
F3.1314179045008355
aF4.802159761538224
aF6.284327485386165
aa(lp164
F0.5989062476333492
aF0.6216050946154413
aF0.6648286610510218
aa(lp165
F-0.25151249997284064
aF-0.542124931203898
aF-0.8437966942621117
aag6
(g10
S'*A\xd5\xb1\xc7RQ@'
p166
tp167
Rp168
tp169
a((lp170
I0
aF0.0
aF0.0
aF0.0
aF17.19
aF0.0
aF530.198
a(lp171
(lp172
F2.7429959647934465
aF4.751706729810444
aF6.904727293543475
aa(lp173
F0.5970471397153404
aF0.6294645833499203
aF0.6772965567948673
aa(lp174
F-0.3207751701060521
aF-0.4851278632224614
aF-0.8886741637679888
aag6
(g10
S'\xe1\xb8Zi\xd7\xf9P@'
p175
tp176
Rp177
tp178
a((lp179
I0
aF0.0
aF0.0
aF0.0
aF18.628
aF0.0
aF540.883
a(lp180
(lp181
F3.0548536321809943
aF4.492609420457234
aF5.9472873710502085
aa(lp182
F0.5987234331942769
aF0.6256461783656894
aF0.6712187272578924
aa(lp183
F-0.2677824940512701
aF-0.4926844578074246
aF-0.9113635534936074
aag6
(g10
S'\xddh\x90\x8e6\xefP@'
p184
tp185
Rp186
tp187
a((lp188
I0
aF0.0
aF0.0
aF0.0
aF17.612
aF0.0
aF7039.815
a(lp189
(lp190
F2.8877780994210918
aF4.635719928501023
aF5.673990839809887
aa(lp191
F0.6050065709413511
aF0.6273386418099762
aF0.6749694844691803
aa(lp192
F-0.30712292309794353
aF-0.5402419592208627
aF-0.8842568099528566
aag6
(g10
S'Xv\xe4\xaa\xfc\x04Q@'
p193
tp194
Rp195
tp196
a.