(lp0
((lp1
I0
aF0.0
aF0.0
aF0.0
aF20.664
aF0.0
aF459.389
a(lp2
(lp3
F2.824757290689275
aF4.796077432317745
aF5.664080491746423
aa(lp4
F0.5947718690755001
aF0.6333439905357416
aF0.673380035769246
aa(lp5
F-0.29068641044366933
aF-0.4697697204822448
aF-0.9572379411113258
aacnumpy.core.multiarray
scalar
p6
(cnumpy
dtype
p7
(S'f8'
p8
I0
I1
tp9
Rp10
(I3
S'<'
p11
NNNI-1
I-1
I0
tp12
bS'\xaa\xb2[P28Q@'
p13
tp14
Rp15
tp16
a((lp17
I0
aF0.0
aF0.0
aF0.0
aF18.034
aF0.0
aF450.926
a(lp18
(lp19
F2.7151536634826585
aF4.377141710624778
aF6.278164356929389
aa(lp20
F0.5987201480826029
aF0.6335891896644268
aF0.667786425617745
aa(lp21
F-0.27650286364936594
aF-0.5268437320087304
aF-0.9719915767337429
aag6
(g10
S'\xe8_j\xdc\xacWQ@'
p22
tp23
Rp24
tp25
a((lp26
I0
aF0.0
aF0.0
aF0.0
aF18.425
aF0.0
aF445.167
a(lp27
(lp28
F2.807209969382743
aF4.767151333146222
aF6.147226485948314
aa(lp29
F0.6021276438951756
aF0.63006510786105
aF0.6729941733137338
aa(lp30
F-0.18966195142982206
aF-0.4800496978054079
aF-0.8833927909313437
aag6
(g10
S'F]\xc2\xd1\xec;M@'
p31
tp32
Rp33
tp34
a((lp35
I0
aF0.0
aF0.0
aF0.0
aF19.378
aF0.0
aF451.619
a(lp36
(lp37
F2.184360091173899
aF4.392989171264939
aF6.237573221442402
aa(lp38
F0.6003823283535329
aF0.6325073124395568
aF0.6646704062120866
aa(lp39
F-0.2525477784255786
aF-0.49939171877886185
aF-0.9608359517089692
aag6
(g10
S'uA3\xda\x84&Q@'
p40
tp41
Rp42
tp43
a((lp44
I0
aF0.0
aF0.0
aF0.0
aF18.831
aF0.0
aF449.649
a(lp45
(lp46
F2.7032513710500186
aF4.199503483371565
aF6.338231559667512
aa(lp47
F0.5988986705898482
aF0.6311345758818744
aF0.6617944544036126
aa(lp48
F-0.23473218548258257
aF-0.5315487097620195
aF-0.8198974325286097
aag6
(g10
S'\x00\xac@\xf1\xbf\x1dQ@'
p49
tp50
Rp51
tp52
a((lp53
I0
aF0.0
aF0.0
aF0.0
aF18.409
aF0.0
aF454.195
a(lp54
(lp55
F2.5527916057714823
aF4.908579087480985
aF6.256529831171529
aa(lp56
F0.597281028765604
aF0.6296491705885441
aF0.6650691355938195
aa(lp57
F-0.19767049432521963
aF-0.58464093821661
aF-0.8190219555533736
aag6
(g10
S'JX\xa8DL\xffP@'
p58
tp59
Rp60
tp61
a((lp62
I0
aF0.0
aF0.0
aF0.0
aF19.8
aF0.0
aF449.55
a(lp63
(lp64
F2.7500170576143055
aF4.310295406551293
aF6.0476534208689845
aa(lp65
F0.5991408836817964
aF0.6243672040672595
aF0.6727046784133444
aa(lp66
F-0.19656769915554465
aF-0.527721255603921
aF-0.9951616425082853
aag6
(g10
S"\xd0e#\xc2c'Q@"
p67
tp68
Rp69
tp70
a((lp71
I0
aF0.0
aF0.0
aF0.0
aF19.05
aF0.0
aF453.424
a(lp72
(lp73
F2.3568433268757603
aF4.955626612810979
aF6.361043463298485
aa(lp74
F0.6081258954247251
aF0.6345786694234467
aF0.6713583838294414
aa(lp75
F-0.2685371938626988
aF-0.5772263343282501
aF-0.9293923058101655
aag6
(g10
S'oPL\t\xc8\xd0P@'
p76
tp77
Rp78
tp79
a((lp80
I0
aF0.0
aF0.0
aF0.0
aF18.878
aF0.0
aF452.532
a(lp81
(lp82
F2.595767729694337
aF4.836033319549812
aF5.926099094727545
aa(lp83
F0.6025909360389303
aF0.6263974848783607
aF0.6634757655878172
aa(lp84
F-0.32629449855073944
aF-0.5275722533639337
aF-0.8953129348190725
aag6
(g10
S'Z\xd0\x97(2\xa2L@'
p85
tp86
Rp87
tp88
a((lp89
I0
aF0.0
aF0.0
aF0.0
aF18.846
aF0.0
aF458.292
a(lp90
(lp91
F2.7652503148991654
aF4.286948958821014
aF6.433468675472004
aa(lp92
F0.6045819849551102
aF0.634778995963926
aF0.6704761172994453
aa(lp93
F-0.2054887738829896
aF-0.46006461437097984
aF-0.8209240343031579
aag6
(g10
S'\x13\x13\xd6\t\x92SN@'
p94
tp95
Rp96
tp97
a((lp98
I0
aF0.0
aF0.0
aF0.0
aF19.659
aF0.0
aF456.498
a(lp99
(lp100
F3.132535311640791
aF4.579571006959159
aF6.027814011195368
aa(lp101
F0.6073647332939965
aF0.618943448265654
aF0.670336387129814
aa(lp102
F-0.2382356659955266
aF-0.5143844729729439
aF-0.962560876834777
aag6
(g10
S'\x9a\x936\xa1_\x03N@'
p103
tp104
Rp105
tp106
a((lp107
I0
aF0.0
aF0.0
aF0.0
aF19.456
aF0.0
aF462.028
a(lp108
(lp109
F2.648129262618301
aF4.189441770192568
aF6.2614531659870405
aa(lp110
F0.5925289666545535
aF0.6331627517468401
aF0.6748076391547827
aa(lp111
F-0.3727600092056225
aF-0.4910402944440368
aF-0.9403351730539781
aag6
(g10
S'\xd0\x02\x12a\x8cCL@'
p112
tp113
Rp114
tp115
a((lp116
I0
aF0.0
aF0.0
aF0.0
aF19.409
aF0.0
aF471.393
a(lp117
(lp118
F3.081614346740431
aF4.99716303431055
aF6.14974596947618
aa(lp119
F0.6057088706116946
aF0.6226838738390332
aF0.673895526576872
aa(lp120
F-0.2224071590879774
aF-0.6020421751688183
aF-0.8993519348222411
aag6
(g10
S'R\xa6\x04nU\xb4P@'
p121
tp122
Rp123
tp124
a((lp125
I0
aF0.0
aF0.0
aF0.0
aF21.941
aF0.0
aF472.861
a(lp126
(lp127
F3.236069858682372
aF4.924170056914692
aF6.0227228162006465
aa(lp128
F0.6084495137519984
aF0.6399103519291534
aF0.6707316010137145
aa(lp129
F-0.24114901465879932
aF-0.5222251960225234
aF-1.015775824979089
aag6
(g10
S'|\x1em#8NQ@'
p130
tp131
Rp132
tp133
a((lp134
I0
aF0.0
aF0.0
aF0.0
aF18.925
aF0.0
aF468.787
a(lp135
(lp136
F3.1408574546313677
aF4.453620096313397
aF5.905719778277636
aa(lp137
F0.6008373229758127
aF0.6268310526794432
aF0.6706857145257116
aa(lp138
F-0.228872406178207
aF-0.5212098558676681
aF-0.836796379524182
aag6
(g10
S'j\xeaL\n\xab\xa5P@'
p139
tp140
Rp141
tp142
a((lp143
I0
aF0.0
aF0.0
aF0.0
aF20.128
aF0.0
aF469.948
a(lp144
(lp145
F2.9080480860036744
aF4.689270633455373
aF5.958823628603175
aa(lp146
F0.5941590529199203
aF0.6328061448310929
aF0.6749777669981357
aa(lp147
F-0.3318748905463953
aF-0.4862302845818474
aF-0.9004450172310686
aag6
(g10
S'e\xe4\x8c\xf3\xb9\xbeP@'
p148
tp149
Rp150
tp151
a((lp152
I0
aF0.0
aF0.0
aF0.0
aF19.864
aF0.0
aF489.681
a(lp153
(lp154
F2.321039810289505
aF4.6248905262561975
aF6.269948339964162
aa(lp155
F0.597496989775022
aF0.632100252001099
aF0.6688027648854988
aa(lp156
F-0.22287032438967552
aF-0.4820384104830606
aF-0.9642644854160098
aag6
(g10
S'\\H\xe8\xb1\xfd\xa1P@'
p157
tp158
Rp159
tp160
a((lp161
I0
aF0.0
aF0.0
aF0.0
aF18.784
aF0.0
aF482.025
a(lp162
(lp163
F2.5085833625659624
aF4.620301658352161
aF6.018038089061002
aa(lp164
F0.6000649716676114
aF0.6330580907400216
aF0.6799851482637956
aa(lp165
F-0.2853794931003097
aF-0.47083092400032045
aF-0.8757588643618525
aag6
(g10
S'\xaeI\x95\xcd!FQ@'
p166
tp167
Rp168
tp169
a((lp170
I0
aF0.0
aF0.0
aF0.0
aF17.862
aF0.0
aF484.871
a(lp171
(lp172
F2.9519991500830463
aF4.498913181798126
aF5.9971130382706725
aa(lp173
F0.600081636171479
aF0.6360893789549122
aF0.6719123683524866
aa(lp174
F-0.18683537450968823
aF-0.43316654872400295
aF-1.002304146366817
aag6
(g10
S'\xc8|T"\xf6\xbfP@'
p175
tp176
Rp177
tp178
a((lp179
I0
aF0.0
aF0.0
aF0.0
aF17.363
aF0.0
aF498.277
a(lp180
(lp181
F2.904599965746778
aF4.7068352137616065
aF6.066994366793988
aa(lp182
F0.5958472005770301
aF0.6261316411721141
aF0.6724539830451227
aa(lp183
F-0.25917662055041474
aF-0.5058611501997913
aF-0.8171653544804037
aag6
(g10
S'\x89a\xed}\x9e\xc6P@'
p184
tp185
Rp186
tp187
a((lp188
I0
aF0.0
aF0.0
aF0.0
aF18.191
aF0.0
aF500.108
a(lp189
(lp190
F2.3545274485970324
aF4.652879677039858
aF6.0215412468231415
aa(lp191
F0.5982555022701419
aF0.6263414106518931
aF0.6720682195689839
aa(lp192
F-0.20405459042130158
aF-0.4578856157127093
aF-0.8863645764129968
aag6
(g10
S'\xc1Cus\xcc\x18Q@'
p193
tp194
Rp195
tp196
a((lp197
I0
aF0.0
aF0.0
aF0.0
aF17.596
aF0.0
aF486.467
a(lp198
(lp199
F2.862900037973834
aF4.779416828313761
aF6.548215885348454
aa(lp200
F0.5948795016007831
aF0.6397858989026399
aF0.677602241400694
aa(lp201
F-0.29207967347235125
aF-0.431444571629186
aF-0.8547895245882199
aag6
(g10
S'I\xdd$K\x16\x9aP@'
p202
tp203
Rp204
tp205
a((lp206
I0
aF0.0
aF0.0
aF0.0
aF17.424
aF0.0
aF489.359
a(lp207
(lp208
F2.642627195251967
aF4.749377790016611
aF5.919972817826799
aa(lp209
F0.5992620684272176
aF0.6333449458869957
aF0.6678761766425275
aa(lp210
F-0.28628923208006435
aF-0.5354760152027301
aF-0.940496134351633
aag6
(g10
S'a\xdaK\xe7\x9aVP@'
p211
tp212
Rp213
tp214
a((lp215
I0
aF0.0
aF0.0
aF0.0
aF18.237
aF0.0
aF489.479
a(lp216
(lp217
F2.840907758537212
aF4.461955874263329
aF6.551247456312188
aa(lp218
F0.6056865434475868
aF0.6299610615217934
aF0.6769634065176605
aa(lp219
F-0.26500097344091095
aF-0.5085829815348197
aF-1.075769005813879
aag6
(g10
S'\xad)\xed\xad\xf5\x9dQ@'
p220
tp221
Rp222
tp223
a((lp224
I0
aF0.0
aF0.0
aF0.0
aF17.549
aF0.0
aF490.049
a(lp225
(lp226
F3.274071521095517
aF4.6311863273863505
aF5.894887727028795
aa(lp227
F0.603427101177209
aF0.6258291635404573
aF0.6636537594500967
aa(lp228
F-0.21190895018427686
aF-0.5537806039383338
aF-0.8974179030114361
aag6
(g10
S'\x07\x88\x11\xa0\xe9\xccP@'
p229
tp230
Rp231
tp232
a((lp233
I0
aF0.0
aF0.0
aF0.0
aF17.315
aF0.0
aF500.485
a(lp234
(lp235
F2.892070123230332
aF4.550272770096962
aF6.580437661320451
aa(lp236
F0.593442596235991
aF0.6264046980866655
aF0.6772698736452282
aa(lp237
F-0.24068775529097405
aF-0.5508335270394294
aF-0.7794211116456549
aag6
(g10
S'\xd9\xb2\xd7\xac\x10\x81P@'
p238
tp239
Rp240
tp241
a((lp242
I0
aF0.0
aF0.0
aF0.0
aF17.925
aF0.0
aF492.405
a(lp243
(lp244
F3.023923694657311
aF4.455871036463129
aF6.198241976709209
aa(lp245
F0.6057517132100438
aF0.6222518825170527
aF0.6624513544314815
aa(lp246
F-0.2362822202937126
aF-0.4625912694184752
aF-0.9119487205333361
aag6
(g10
S'\xd9+?\xd2\x81\x97P@'
p247
tp248
Rp249
tp250
a((lp251
I0
aF0.0
aF0.0
aF0.0
aF17.924
aF0.0
aF500.329
a(lp252
(lp253
F2.9622955918290845
aF4.691791988554345
aF5.924057226202136
aa(lp254
F0.5939120099067436
aF0.630463285479623
aF0.6608584032818136
aa(lp255
F-0.24140448559151556
aF-0.5237137086704865
aF-0.9168748391899996
aag6
(g10
S'\xa0^G\x07\xf6\xdaO@'
p256
tp257
Rp258
tp259
a((lp260
I0
aF0.0
aF0.0
aF0.0
aF18.972
aF0.0
aF499.703
a(lp261
(lp262
F2.5238703768575395
aF4.82679374447662
aF6.311848526002469
aa(lp263
F0.6103278553831242
aF0.6346157959332597
aF0.6776850636902473
aa(lp264
F-0.2999993771913789
aF-0.48374595270178106
aF-0.8225319981091659
aag6
(g10
S'\xd6\xf0@\xf2TGQ@'
p265
tp266
Rp267
tp268
a((lp269
I0
aF0.0
aF0.0
aF0.0
aF18.081
aF0.0
aF505.626
a(lp270
(lp271
F2.8248421877084535
aF4.320039316431519
aF5.820660410850449
aa(lp272
F0.5987034733533589
aF0.6264391626136979
aF0.6783468489307125
aa(lp273
F-0.3330498838784103
aF-0.4820979642100643
aF-1.0690185195888542
aag6
(g10
S'\n\x18\x9e+-GQ@'
p274
tp275
Rp276
tp277
a((lp278
I0
aF0.0
aF0.0
aF0.0
aF19.113
aF0.0
aF509.521
a(lp279
(lp280
F2.2568218447109394
aF4.344349861171981
aF5.965793722550023
aa(lp281
F0.5987671678266734
aF0.6332321446607776
aF0.6667369529076068
aa(lp282
F-0.1827175442236946
aF-0.5474838602653291
aF-0.8789908053942205
aag6
(g10
S'V\xec\\\x1bU\xaaP@'
p283
tp284
Rp285
tp286
a((lp287
I0
aF0.0
aF0.0
aF0.0
aF17.503
aF0.0
aF510.578
a(lp288
(lp289
F3.6457565500223357
aF4.896628229724346
aF5.9194151734209655
aa(lp290
F0.605004519510088
aF0.6328949111739599
aF0.6690416534233001
aa(lp291
F-0.24520770648598403
aF-0.5792151945264573
aF-0.9505707284647599
aag6
(g10
S'p\x86\x9c\xfa\xc2SQ@'
p292
tp293
Rp294
tp295
a((lp296
I0
aF0.0
aF0.0
aF0.0
aF17.659
aF0.0
aF515.272
a(lp297
(lp298
F2.9615630732133744
aF4.8032188325950465
aF6.303500709185487
aa(lp299
F0.5983841011369812
aF0.6271281189941484
aF0.6708772459155962
aa(lp300
F-0.2797898755988146
aF-0.5084063451131106
aF-0.9799597977508203
aag6
(g10
S'O\xb1\xc1\xcc\xa2\xb8Q@'
p301
tp302
Rp303
tp304
a((lp305
I0
aF0.0
aF0.0
aF0.0
aF17.831
aF0.0
aF535.96
a(lp306
(lp307
F3.1314179045008355
aF4.802159761538224
aF6.284327485386165
aa(lp308
F0.5989062476333492
aF0.6216050946154413
aF0.6648286610510218
aa(lp309
F-0.25151249997284064
aF-0.542124931203898
aF-0.8437966942621117
aag6
(g10
S'*A\xd5\xb1\xc7RQ@'
p310
tp311
Rp312
tp313
a((lp314
I0
aF0.0
aF0.0
aF0.0
aF17.19
aF0.0
aF530.198
a(lp315
(lp316
F2.7429959647934465
aF4.751706729810444
aF6.904727293543475
aa(lp317
F0.5970471397153404
aF0.6294645833499203
aF0.6772965567948673
aa(lp318
F-0.3207751701060521
aF-0.4851278632224614
aF-0.8886741637679888
aag6
(g10
S'\xe1\xb8Zi\xd7\xf9P@'
p319
tp320
Rp321
tp322
a((lp323
I0
aF0.0
aF0.0
aF0.0
aF18.628
aF0.0
aF540.883
a(lp324
(lp325
F3.0548536321809943
aF4.492609420457234
aF5.9472873710502085
aa(lp326
F0.5987234331942769
aF0.6256461783656894
aF0.6712187272578924
aa(lp327
F-0.2677824940512701
aF-0.4926844578074246
aF-0.9113635534936074
aag6
(g10
S'\xddh\x90\x8e6\xefP@'
p328
tp329
Rp330
tp331
a((lp332
I0
aF0.0
aF0.0
aF0.0
aF17.612
aF0.0
aF7039.815
a(lp333
(lp334
F2.8877780994210918
aF4.635719928501023
aF5.673990839809887
aa(lp335
F0.6050065709413511
aF0.6273386418099762
aF0.6749694844691803
aa(lp336
F-0.30712292309794353
aF-0.5402419592208627
aF-0.8842568099528566
aag6
(g10
S'Xv\xe4\xaa\xfc\x04Q@'
p337
tp338
Rp339
tp340
a.