(lp0
((lp1
I0
aF0.0
aF0.0
aF0.0
aF18.898
aF0.0
aF455.037
a(lp2
(lp3
F3.279395659435736
aF4.691356157728381
aF6.280033701126426
aa(lp4
F0.5963806899084352
aF0.6282463168287319
aF0.6795237065545848
aa(lp5
F-0.28250284824214095
aF-0.5021071530014336
aF-0.8423429685088373
aacnumpy.core.multiarray
scalar
p6
(cnumpy
dtype
p7
(S'f8'
p8
I0
I1
tp9
Rp10
(I3
S'<'
p11
NNNI-1
I-1
I0
tp12
bS'\xb7V\x95X\x9bBQ@'
p13
tp14
Rp15
tp16
a((lp17
I0
aF0.0
aF0.0
aF0.0
aF16.862
aF0.0
aF454.337
a(lp18
(lp19
F2.6115801780347487
aF4.551352794629112
aF5.868965532495526
aa(lp20
F0.6041883792109647
aF0.6270171000353263
aF0.6703597883837088
aa(lp21
F-0.24297831986008606
aF-0.488786698357501
aF-0.9135011070977617
aag6
(g10
S'~j-\xd7j\xceQ@'
p22
tp23
Rp24
tp25
a((lp26
I0
aF0.0
aF0.0
aF0.0
aF16.83
aF0.0
aF445.978
a(lp27
(lp28
F3.2887740202400533
aF4.282865982540537
aF6.033656520702347
aa(lp29
F0.5948217601110102
aF0.6338359154670895
aF0.6604362683159584
aa(lp30
F-0.23358394341006733
aF-0.4693609233666425
aF-0.8324194321945444
aag6
(g10
S'#\x93)\xed\xcb\xcbP@'
p31
tp32
Rp33
tp34
a((lp35
I0
aF0.0
aF0.0
aF0.0
aF16.831
aF0.0
aF446.89
a(lp36
(lp37
F2.6302148744238067
aF4.634684648116128
aF6.200733847165285
aa(lp38
F0.5954510827740596
aF0.6232154725085047
aF0.6547448455875363
aa(lp39
F-0.23841771964739858
aF-0.48011913297553294
aF-0.9301108597753823
aag6
(g10
S'\x95\xe7\xfc\xfd\x13\xe5P@'
p40
tp41
Rp42
tp43
a((lp44
I0
aF0.0
aF0.0
aF0.0
aF16.66
aF0.0
aF442.353
a(lp45
(lp46
F2.845816196431456
aF4.96061441418414
aF5.918393296084832
aa(lp47
F0.597968110924793
aF0.6261605633290689
aF0.676275181581388
aa(lp48
F-0.20871190657324196
aF-0.5489806326410733
aF-0.9544342300284093
aag6
(g10
S'\xad\x08r\xb3\x7f\xe6P@'
p49
tp50
Rp51
tp52
a((lp53
I0
aF0.0
aF0.0
aF0.0
aF16.956
aF0.0
aF-85952.843
a(lp54
(lp55
F3.092922273651791
aF4.252758573292034
aF6.31175391967748
aa(lp56
F0.6031831885461628
aF0.6337656242424967
aF0.6661454484333778
aa(lp57
F-0.2826858683193521
aF-0.46053813281804523
aF-0.9347984715516885
aag6
(g10
S"k\x91\xe5'o7Q@"
p58
tp59
Rp60
tp61
a((lp62
I0
aF0.0
aF0.0
aF0.0
aF17.268
aF0.0
aF450.058
a(lp63
(lp64
F2.6246193957650443
aF3.987511908885211
aF6.081420303267273
aa(lp65
F0.59448346485562
aF0.6320621710038922
aF0.6673622550056265
aa(lp66
F-0.24710187001354056
aF-0.4860933926151806
aF-0.9017013473881269
aag6
(g10
S'Fg\xf7\x02E\x10Q@'
p67
tp68
Rp69
tp70
a((lp71
I0
aF0.0
aF0.0
aF0.0
aF16.987
aF0.0
aF451.693
a(lp72
(lp73
F3.187140256678069
aF4.810501156898401
aF6.1159109417922375
aa(lp74
F0.600974770602663
aF0.6312269122721187
aF0.6708643479082318
aa(lp75
F-0.29685006883168086
aF-0.45798066149980354
aF-0.9190203500913132
aag6
(g10
S'cY\xa0\xb0\x82\x88Q@'
p76
tp77
Rp78
tp79
a((lp80
I0
aF0.0
aF0.0
aF0.0
aF17.08
aF0.0
aF456.594
a(lp81
(lp82
F3.050599650281275
aF4.838370008133013
aF6.533232011055526
aa(lp83
F0.6050055164703223
aF0.6266789731262521
aF0.6766852632786526
aa(lp84
F-0.2698134878174092
aF-0.5586495657311668
aF-0.9140391388162928
aag6
(g10
S'R\x15\x132>iQ@'
p85
tp86
Rp87
tp88
a((lp89
I0
aF0.0
aF0.0
aF0.0
aF16.925
aF0.0
aF455.504
a(lp90
(lp91
F3.4048226261004206
aF3.9912702902595107
aF5.99256801000507
aa(lp92
F0.6045560596916588
aF0.635696260841076
aF0.6780122125195406
aa(lp93
F-0.19819062158925188
aF-0.5526479548701902
aF-0.8529922270625843
aag6
(g10
S'\xe6\xbd\x8b\xdc\x9dcQ@'
p94
tp95
Rp96
tp97
a((lp98
I0
aF0.0
aF0.0
aF0.0
aF16.971
aF0.0
aF464.522
a(lp99
(lp100
F3.0543446642008187
aF4.632868237538179
aF5.958313878647571
aa(lp101
F0.5961059669644475
aF0.6223915004389464
aF0.6560723465943825
aa(lp102
F-0.27516403101938025
aF-0.5094854773484826
aF-1.0288759145499606
aag6
(g10
S'\x8d|\t\x06s\x11Q@'
p103
tp104
Rp105
tp106
a((lp107
I0
aF0.0
aF0.0
aF0.0
aF18.362
aF0.0
aF468.34
a(lp108
(lp109
F3.229116473072829
aF4.782436272430391
aF5.878724058114209
aa(lp110
F0.5964560875401385
aF0.6221942253305434
aF0.6663858754044417
aa(lp111
F-0.18693587879840987
aF-0.5351592071091936
aF-0.8519294370060597
aag6
(g10
S'\x89\xdb\xa9\x9f\x1d\xe3P@'
p112
tp113
Rp114
tp115
a((lp116
I0
aF0.0
aF0.0
aF0.0
aF19.284
aF0.016
aF474.794
a(lp117
(lp118
F2.7390256680218394
aF4.570689669165969
aF6.354510485782907
aa(lp119
F0.5936999280652584
aF0.6256156950844769
aF0.6610486474527044
aa(lp120
F-0.22058089269091685
aF-0.5285427969853411
aF-0.9649358696043312
aag6
(g10
S'\xfb\xde`N\xb9IP@'
p121
tp122
Rp123
tp124
a((lp125
I0
aF0.0
aF0.0
aF0.0
aF17.69
aF0.0
aF475.957
a(lp126
(lp127
F2.947179499365665
aF4.320930095996366
aF5.735474013708444
aa(lp128
F0.5961274170564146
aF0.6312339151092029
aF0.6701159905238011
aa(lp129
F-0.1833709820186551
aF-0.561444876471234
aF-0.8054886762111655
aag6
(g10
S'\x11*\x93%\xb7\x7fP@'
p130
tp131
Rp132
tp133
a((lp134
I0
aF0.0
aF0.0
aF0.0
aF17.331
aF0.0
aF471.089
a(lp135
(lp136
F2.550948780094536
aF4.871546558640204
aF5.828414656662298
aa(lp137
F0.5948861684211076
aF0.6288954828869034
aF0.6631887150123988
aa(lp138
F-0.22245373806816035
aF-0.512937017501516
aF-0.7847841472498237
aag6
(g10
S'\x91\xee6\x86\xa6\x15P@'
p139
tp140
Rp141
tp142
a((lp143
I0
aF0.0
aF0.0
aF0.0
aF18.112
aF0.0
aF465.62
a(lp144
(lp145
F2.9003509857409124
aF4.869235632728126
aF6.612125927605115
aa(lp146
F0.6050952772102168
aF0.6290861380925725
aF0.6735884094097832
aa(lp147
F-0.20399822700401404
aF-0.55307747277121
aF-1.1176730516420326
aag6
(g10
S'\xbfg\t\x01v\xaeN@'
p148
tp149
Rp150
tp151
a((lp152
I0
aF0.0
aF0.0
aF0.0
aF16.893
aF0.0
aF471.231
a(lp153
(lp154
F2.108720450893043
aF4.8530051776313705
aF6.112312243725145
aa(lp155
F0.6027383496935225
aF0.6304396694069608
aF0.6697643966570046
aa(lp156
F-0.22781577690335006
aF-0.4767599407514802
aF-0.926645615554826
aag6
(g10
S'h\x92\xfc\x95\\HQ@'
p157
tp158
Rp159
tp160
a((lp161
I0
aF0.0
aF0.0
aF0.0
aF18.721
aF0.0
aF479.637
a(lp162
(lp163
F3.033697830657053
aF4.715972626286686
aF6.209466386036443
aa(lp164
F0.5992657524822828
aF0.6368275966578235
aF0.6625972359104417
aa(lp165
F-0.21348588921040848
aF-0.5364472465174184
aF-0.7776198607552586
aag6
(g10
S'\x11\xa6\xd4\xcf\x12\xd7P@'
p166
tp167
Rp168
tp169
a((lp170
I0
aF0.0
aF0.0
aF0.0
aF16.972
aF0.0
aF479.202
a(lp171
(lp172
F2.970674803060388
aF4.447223636918619
aF6.074669463207011
aa(lp173
F0.5979416650367524
aF0.6356636154493821
aF0.6734120365390369
aa(lp174
F-0.2840063253777111
aF-0.4769288525239371
aF-0.877871844994339
aag6
(g10
S'\x80\xa0\xe6\x91{\x13M@'
p175
tp176
Rp177
tp178
a((lp179
I0
aF0.0
aF0.0
aF0.0
aF18.441
aF0.0
aF478.609
a(lp180
(lp181
F3.257899105629421
aF4.2985471698501865
aF6.0627436849728245
aa(lp182
F0.5935078693527203
aF0.6302053844591788
aF0.6774693356362653
aa(lp183
F-0.284091393401042
aF-0.4887303122994216
aF-0.9232002434449853
aag6
(g10
S'\x8c;\xceoc\xbeP@'
p184
tp185
Rp186
tp187
a((lp188
I0
aF0.0
aF0.0
aF0.0
aF17.284
aF0.0
aF482.128
a(lp189
(lp190
F2.943418056303389
aF4.163426342854884
aF6.041713599726611
aa(lp191
F0.5921219721192662
aF0.6329447125877252
aF0.6731356823942489
aa(lp192
F-0.29300857839619665
aF-0.5576917365997874
aF-0.903988075751028
aag6
(g10
S'PGmR%\xaeQ@'
p193
tp194
Rp195
tp196
a((lp197
I0
aF0.0
aF0.0
aF0.0
aF17.768
aF0.0
aF486.451
a(lp198
(lp199
F2.5753594337411574
aF4.552423568878268
aF6.0913249634802815
aa(lp200
F0.6040072896164178
aF0.6449987469337293
aF0.6644874712079184
aa(lp201
F-0.24867477424246995
aF-0.5776012984273184
aF-0.9040329828253193
aag6
(g10
S'\x98\xa5,\x15\xc5uQ@'
p202
tp203
Rp204
tp205
a((lp206
I0
aF0.0
aF0.0
aF0.0
aF17.816
aF0.0
aF481.49
a(lp207
(lp208
F2.6312865434353516
aF4.761186607009026
aF6.507187686408294
aa(lp209
F0.6015889039940139
aF0.6291867677017642
aF0.6684287775526478
aa(lp210
F-0.26122604059055826
aF-0.569305394304557
aF-0.8898285503649894
aag6
(g10
S'4\xf0\x0f\x1c\xf4\xa0Q@'
p211
tp212
Rp213
tp214
a((lp215
I0
aF0.0
aF0.0
aF0.0
aF17.425
aF0.0
aF489.669
a(lp216
(lp217
F2.815552299933903
aF4.071529853732863
aF6.04298625416948
aa(lp218
F0.5970669915420583
aF0.6326408381230358
aF0.674756248389052
aa(lp219
F-0.22442784516547107
aF-0.5173686594295158
aF-0.8758596947963961
aag6
(g10
S']\xe9\xcbu\xc1`Q@'
p220
tp221
Rp222
tp223
a((lp224
I0
aF0.0
aF0.0
aF0.0
aF17.581
aF0.0
aF494.027
a(lp225
(lp226
F2.5913090209545615
aF4.5700922249572855
aF6.229923667078367
aa(lp227
F0.6010632967977528
aF0.6330304265350969
aF0.682333012002732
aa(lp228
F-0.218786475515167
aF-0.5583204717713053
aF-0.9484568891591765
aag6
(g10
S'\xefAo\x9e\xb3\xb5P@'
p229
tp230
Rp231
tp232
a((lp233
I0
aF0.0
aF0.0
aF0.0
aF18.018
aF0.0
aF493.625
a(lp234
(lp235
F2.697573387236782
aF4.470256083995351
aF5.981701256952416
aa(lp236
F0.5947596157292325
aF0.6294701851851932
aF0.6656057828752324
aa(lp237
F-0.2199238707701689
aF-0.553182379083471
aF-0.8779179052345143
aag6
(g10
S'\xea$v\xb5\x1c\xeeQ@'
p238
tp239
Rp240
tp241
a((lp242
I0
aF0.0
aF0.0
aF0.0
aF17.05
aF0.0
aF495.096
a(lp243
(lp244
F2.2659148898159427
aF4.740734539918845
aF5.963746354277514
aa(lp245
F0.5943514853010237
aF0.6221496400034144
aF0.66661286119446
aa(lp246
F-0.2888529695735023
aF-0.529437307044224
aF-0.8859491793143122
aag6
(g10
S'n\x0b\xea\xb8w\x07Q@'
p247
tp248
Rp249
tp250
a((lp251
I0
aF0.0
aF0.0
aF0.0
aF17.425
aF0.0
aF497.995
a(lp252
(lp253
F2.867600064048621
aF4.5616421055487155
aF6.4235650337439285
aa(lp254
F0.5976671732370346
aF0.6321891164412121
aF0.6719950439596143
aa(lp255
F-0.2565309773640476
aF-0.5217987564417348
aF-0.9202158949714927
aag6
(g10
S'~\x00\x00\x80+\xd2M@'
p256
tp257
Rp258
tp259
a((lp260
I0
aF0.0
aF0.0
aF0.0
aF17.034
aF0.0
aF504.14
a(lp261
(lp262
F2.440383785438354
aF4.559329840351572
aF5.799461132968573
aa(lp263
F0.6053942209137565
aF0.6350619781306609
aF0.6684762479790209
aa(lp264
F-0.25398082906435815
aF-0.4290254071480982
aF-0.8602890612582256
aag6
(g10
S'S\xf8\r\xbe\x98YQ@'
p265
tp266
Rp267
tp268
a((lp269
I0
aF0.0
aF0.0
aF0.0
aF17.55
aF0.0
aF505.648
a(lp270
(lp271
F2.549420703330827
aF4.265570020641317
aF5.756947696878047
aa(lp272
F0.6041656728214754
aF0.6299140788681716
aF0.6787791427610337
aa(lp273
F-0.2802631291010024
aF-0.4816120536980486
aF-0.9147897620075484
aag6
(g10
S'VhVN!\xe2Q@'
p274
tp275
Rp276
tp277
a((lp278
I0
aF0.0
aF0.0
aF0.0
aF17.378
aF0.0
aF515.032
a(lp279
(lp280
F3.0487988919207316
aF4.534807298484439
aF6.004104297932918
aa(lp281
F0.6029175235618337
aF0.6313286341450101
aF0.6703510562815755
aa(lp282
F-0.2518625185456421
aF-0.49209798037833247
aF-0.8900429513257477
aag6
(g10
S'Y\xb4\x0c-\xe0JQ@'
p283
tp284
Rp285
tp286
a((lp287
I0
aF0.0
aF0.0
aF0.0
aF17.503
aF0.0
aF511.303
a(lp288
(lp289
F2.4523222085787744
aF4.7245787896713765
aF6.1878177794443365
aa(lp290
F0.5940290656734164
aF0.625836705938505
aF0.6779245982393605
aa(lp291
F-0.22597044076594383
aF-0.47450905423166123
aF-0.7931306227057683
aag6
(g10
S'\x17\xd8\xe3\x8f%\xe0P@'
p292
tp293
Rp294
tp295
a((lp296
I0
aF0.0
aF0.0
aF0.0
aF17.143
aF0.0
aF512.635
a(lp297
(lp298
F3.199147910053539
aF4.763476847991604
aF6.0533901896332845
aa(lp299
F0.6020095228899627
aF0.6254238731395932
aF0.647891027017167
aa(lp300
F-0.284217278181795
aF-0.4653225054468762
aF-0.9095210963586722
aag6
(g10
S'A\x9aI\xab\xa9$P@'
p301
tp302
Rp303
tp304
a((lp305
I0
aF0.0
aF0.0
aF0.0
aF17.08
aF0.0
aF514.974
a(lp306
(lp307
F2.7843091757532856
aF4.634457092883177
aF5.924083837603302
aa(lp308
F0.6004125283485411
aF0.6257161266637068
aF0.6696821772154908
aa(lp309
F-0.1441651452386389
aF-0.5388155428335375
aF-0.8296559318946461
aag6
(g10
S'\xdb\xe9\xd6\xdad8P@'
p310
tp311
Rp312
tp313
a((lp314
I0
aF0.0
aF0.0
aF0.0
aF18.206
aF0.0
aF513.384
a(lp315
(lp316
F3.127581868953403
aF4.744311723790104
aF6.280579321293434
aa(lp317
F0.6060063902269573
aF0.6311444901238924
aF0.6738210096108382
aa(lp318
F-0.3167282883413742
aF-0.5125383806506939
aF-0.7844682414660337
aag6
(g10
S'\x89T@\xe4\x95\xccP@'
p319
tp320
Rp321
tp322
a((lp323
I0
aF0.015
aF0.0
aF0.0
aF17.051
aF0.0
aF525.982
a(lp324
(lp325
F2.4397072126339037
aF4.674844915027815
aF5.809101568574284
aa(lp326
F0.5985903634835006
aF0.6361422013223287
aF0.6734064472505988
aa(lp327
F-0.2892800806312569
aF-0.48605614874651093
aF-0.9346681477562973
aag6
(g10
S'\xfd\x00\x184\xac\xb1P@'
p328
tp329
Rp330
tp331
a((lp332
I0
aF0.0
aF0.0
aF0.0
aF18.159
aF0.0
aF7170.9
a(lp333
(lp334
F2.955659976662434
aF4.472288583907221
aF5.813144994179808
aa(lp335
F0.6051878107023183
aF0.6373418248978447
aF0.6633774903679416
aa(lp336
F-0.19756214293496546
aF-0.4790235601405803
aF-0.8692458983268527
aag6
(g10
S'd-\x96\xf8)HQ@'
p337
tp338
Rp339
tp340
a((lp341
I0
aF0.0
aF0.0
aF0.0
aF20.613
aF0.0
aF7229.074
a(lp342
(lp343
F2.603561902859242
aF4.893658252686551
aF5.546734974502131
aa(lp344
F0.6004710945183465
aF0.6343619541242793
aF0.6678666476554759
aa(lp345
F-0.21912122661350747
aF-0.5171520173113976
aF-0.879343432466131
aag6
(g10
S'\xa5\x04kT.`Q@'
p346
tp347
Rp348
tp349
a((lp350
I0
aF0.0
aF0.0
aF0.0
aF21.238
aF0.0
aF6146.152
a(lp351
(lp352
F2.586223467876817
aF4.903409101037778
aF6.249057444909081
aa(lp353
F0.6046471956129414
aF0.6163220736115471
aF0.6586819406674235
aa(lp354
F-0.27077458416281996
aF-0.5121936041449558
aF-0.8916394928284362
aag6
(g10
S' :?T\x9e]Q@'
p355
tp356
Rp357
tp358
a.