(lp0
((lp1
I0
aF0.0
aF0.0
aF0.0
aF20.664
aF0.0
aF459.389
a(lp2
(lp3
F2.824757290689275
aF4.796077432317745
aF5.664080491746423
aa(lp4
F0.5947718690755001
aF0.6333439905357416
aF0.673380035769246
aa(lp5
F-0.29068641044366933
aF-0.4697697204822448
aF-0.9572379411113258
aacnumpy.core.multiarray
scalar
p6
(cnumpy
dtype
p7
(S'f8'
p8
I0
I1
tp9
Rp10
(I3
S'<'
p11
NNNI-1
I-1
I0
tp12
bS'\xaa\xb2[P28Q@'
p13
tp14
Rp15
tp16
a((lp17
I0
aF0.0
aF0.0
aF0.0
aF18.034
aF0.0
aF450.926
a(lp18
(lp19
F2.7151536634826585
aF4.377141710624778
aF6.278164356929389
aa(lp20
F0.5987201480826029
aF0.6335891896644268
aF0.667786425617745
aa(lp21
F-0.27650286364936594
aF-0.5268437320087304
aF-0.9719915767337429
aag6
(g10
S'\xe8_j\xdc\xacWQ@'
p22
tp23
Rp24
tp25
a((lp26
I0
aF0.0
aF0.0
aF0.0
aF18.425
aF0.0
aF445.167
a(lp27
(lp28
F2.807209969382743
aF4.767151333146222
aF6.147226485948314
aa(lp29
F0.6021276438951756
aF0.63006510786105
aF0.6729941733137338
aa(lp30
F-0.18966195142982206
aF-0.4800496978054079
aF-0.8833927909313437
aag6
(g10
S'F]\xc2\xd1\xec;M@'
p31
tp32
Rp33
tp34
a((lp35
I0
aF0.0
aF0.0
aF0.0
aF19.378
aF0.0
aF451.619
a(lp36
(lp37
F2.184360091173899
aF4.392989171264939
aF6.237573221442402
aa(lp38
F0.6003823283535329
aF0.6325073124395568
aF0.6646704062120866
aa(lp39
F-0.2525477784255786
aF-0.49939171877886185
aF-0.9608359517089692
aag6
(g10
S'uA3\xda\x84&Q@'
p40
tp41
Rp42
tp43
a((lp44
I0
aF0.0
aF0.0
aF0.0
aF18.831
aF0.0
aF449.649
a(lp45
(lp46
F2.7032513710500186
aF4.199503483371565
aF6.338231559667512
aa(lp47
F0.5988986705898482
aF0.6311345758818744
aF0.6617944544036126
aa(lp48
F-0.23473218548258257
aF-0.5315487097620195
aF-0.8198974325286097
aag6
(g10
S'\x00\xac@\xf1\xbf\x1dQ@'
p49
tp50
Rp51
tp52
a((lp53
I0
aF0.0
aF0.0
aF0.0
aF18.409
aF0.0
aF454.195
a(lp54
(lp55
F2.5527916057714823
aF4.908579087480985
aF6.256529831171529
aa(lp56
F0.597281028765604
aF0.6296491705885441
aF0.6650691355938195
aa(lp57
F-0.19767049432521963
aF-0.58464093821661
aF-0.8190219555533736
aag6
(g10
S'JX\xa8DL\xffP@'
p58
tp59
Rp60
tp61
a((lp62
I0
aF0.0
aF0.0
aF0.0
aF19.8
aF0.0
aF449.55
a(lp63
(lp64
F2.7500170576143055
aF4.310295406551293
aF6.0476534208689845
aa(lp65
F0.5991408836817964
aF0.6243672040672595
aF0.6727046784133444
aa(lp66
F-0.19656769915554465
aF-0.527721255603921
aF-0.9951616425082853
aag6
(g10
S"\xd0e#\xc2c'Q@"
p67
tp68
Rp69
tp70
a((lp71
I0
aF0.0
aF0.0
aF0.0
aF19.05
aF0.0
aF453.424
a(lp72
(lp73
F2.3568433268757603
aF4.955626612810979
aF6.361043463298485
aa(lp74
F0.6081258954247251
aF0.6345786694234467
aF0.6713583838294414
aa(lp75
F-0.2685371938626988
aF-0.5772263343282501
aF-0.9293923058101655
aag6
(g10
S'oPL\t\xc8\xd0P@'
p76
tp77
Rp78
tp79
a((lp80
I0
aF0.0
aF0.0
aF0.0
aF18.878
aF0.0
aF452.532
a(lp81
(lp82
F2.595767729694337
aF4.836033319549812
aF5.926099094727545
aa(lp83
F0.6025909360389303
aF0.6263974848783607
aF0.6634757655878172
aa(lp84
F-0.32629449855073944
aF-0.5275722533639337
aF-0.8953129348190725
aag6
(g10
S'Z\xd0\x97(2\xa2L@'
p85
tp86
Rp87
tp88
a((lp89
I0
aF0.0
aF0.0
aF0.0
aF18.846
aF0.0
aF458.292
a(lp90
(lp91
F2.7652503148991654
aF4.286948958821014
aF6.433468675472004
aa(lp92
F0.6045819849551102
aF0.634778995963926
aF0.6704761172994453
aa(lp93
F-0.2054887738829896
aF-0.46006461437097984
aF-0.8209240343031579
aag6
(g10
S'\x13\x13\xd6\t\x92SN@'
p94
tp95
Rp96
tp97
a((lp98
I0
aF0.0
aF0.0
aF0.0
aF19.659
aF0.0
aF456.498
a(lp99
(lp100
F3.132535311640791
aF4.579571006959159
aF6.027814011195368
aa(lp101
F0.6073647332939965
aF0.618943448265654
aF0.670336387129814
aa(lp102
F-0.2382356659955266
aF-0.5143844729729439
aF-0.962560876834777
aag6
(g10
S'\x9a\x936\xa1_\x03N@'
p103
tp104
Rp105
tp106
a((lp107
I0
aF0.0
aF0.0
aF0.0
aF19.456
aF0.0
aF462.028
a(lp108
(lp109
F2.648129262618301
aF4.189441770192568
aF6.2614531659870405
aa(lp110
F0.5925289666545535
aF0.6331627517468401
aF0.6748076391547827
aa(lp111
F-0.3727600092056225
aF-0.4910402944440368
aF-0.9403351730539781
aag6
(g10
S'\xd0\x02\x12a\x8cCL@'
p112
tp113
Rp114
tp115
a((lp116
I0
aF0.0
aF0.0
aF0.0
aF19.409
aF0.0
aF471.393
a(lp117
(lp118
F3.081614346740431
aF4.99716303431055
aF6.14974596947618
aa(lp119
F0.6057088706116946
aF0.6226838738390332
aF0.673895526576872
aa(lp120
F-0.2224071590879774
aF-0.6020421751688183
aF-0.8993519348222411
aag6
(g10
S'R\xa6\x04nU\xb4P@'
p121
tp122
Rp123
tp124
a((lp125
I0
aF0.0
aF0.0
aF0.0
aF21.941
aF0.0
aF472.861
a(lp126
(lp127
F3.236069858682372
aF4.924170056914692
aF6.0227228162006465
aa(lp128
F0.6084495137519984
aF0.6399103519291534
aF0.6707316010137145
aa(lp129
F-0.24114901465879932
aF-0.5222251960225234
aF-1.015775824979089
aag6
(g10
S'|\x1em#8NQ@'
p130
tp131
Rp132
tp133
a((lp134
I0
aF0.0
aF0.0
aF0.0
aF18.925
aF0.0
aF468.787
a(lp135
(lp136
F3.1408574546313677
aF4.453620096313397
aF5.905719778277636
aa(lp137
F0.6008373229758127
aF0.6268310526794432
aF0.6706857145257116
aa(lp138
F-0.228872406178207
aF-0.5212098558676681
aF-0.836796379524182
aag6
(g10
S'j\xeaL\n\xab\xa5P@'
p139
tp140
Rp141
tp142
a((lp143
I0
aF0.0
aF0.0
aF0.0
aF20.128
aF0.0
aF469.948
a(lp144
(lp145
F2.9080480860036744
aF4.689270633455373
aF5.958823628603175
aa(lp146
F0.5941590529199203
aF0.6328061448310929
aF0.6749777669981357
aa(lp147
F-0.3318748905463953
aF-0.4862302845818474
aF-0.9004450172310686
aag6
(g10
S'e\xe4\x8c\xf3\xb9\xbeP@'
p148
tp149
Rp150
tp151
a((lp152
I0
aF0.0
aF0.0
aF0.0
aF19.864
aF0.0
aF489.681
a(lp153
(lp154
F2.321039810289505
aF4.6248905262561975
aF6.269948339964162
aa(lp155
F0.597496989775022
aF0.632100252001099
aF0.6688027648854988
aa(lp156
F-0.22287032438967552
aF-0.4820384104830606
aF-0.9642644854160098
aag6
(g10
S'\\H\xe8\xb1\xfd\xa1P@'
p157
tp158
Rp159
tp160
a((lp161
I0
aF0.0
aF0.0
aF0.0
aF18.784
aF0.0
aF482.025
a(lp162
(lp163
F2.5085833625659624
aF4.620301658352161
aF6.018038089061002
aa(lp164
F0.6000649716676114
aF0.6330580907400216
aF0.6799851482637956
aa(lp165
F-0.2853794931003097
aF-0.47083092400032045
aF-0.8757588643618525
aag6
(g10
S'\xaeI\x95\xcd!FQ@'
p166
tp167
Rp168
tp169
a((lp170
I0
aF0.0
aF0.0
aF0.0
aF17.862
aF0.0
aF484.871
a(lp171
(lp172
F2.9519991500830463
aF4.498913181798126
aF5.9971130382706725
aa(lp173
F0.600081636171479
aF0.6360893789549122
aF0.6719123683524866
aa(lp174
F-0.18683537450968823
aF-0.43316654872400295
aF-1.002304146366817
aag6
(g10
S'\xc8|T"\xf6\xbfP@'
p175
tp176
Rp177
tp178
a((lp179
I0
aF0.0
aF0.0
aF0.0
aF17.363
aF0.0
aF498.277
a(lp180
(lp181
F2.904599965746778
aF4.7068352137616065
aF6.066994366793988
aa(lp182
F0.5958472005770301
aF0.6261316411721141
aF0.6724539830451227
aa(lp183
F-0.25917662055041474
aF-0.5058611501997913
aF-0.8171653544804037
aag6
(g10
S'\x89a\xed}\x9e\xc6P@'
p184
tp185
Rp186
tp187
a((lp188
I0
aF0.0
aF0.0
aF0.0
aF18.191
aF0.0
aF500.108
a(lp189
(lp190
F2.3545274485970324
aF4.652879677039858
aF6.0215412468231415
aa(lp191
F0.5982555022701419
aF0.6263414106518931
aF0.6720682195689839
aa(lp192
F-0.20405459042130158
aF-0.4578856157127093
aF-0.8863645764129968
aag6
(g10
S'\xc1Cus\xcc\x18Q@'
p193
tp194
Rp195
tp196
a((lp197
I0
aF0.0
aF0.0
aF0.0
aF17.596
aF0.0
aF486.467
a(lp198
(lp199
F2.862900037973834
aF4.779416828313761
aF6.548215885348454
aa(lp200
F0.5948795016007831
aF0.6397858989026399
aF0.677602241400694
aa(lp201
F-0.29207967347235125
aF-0.431444571629186
aF-0.8547895245882199
aag6
(g10
S'I\xdd$K\x16\x9aP@'
p202
tp203
Rp204
tp205
a((lp206
I0
aF0.0
aF0.0
aF0.0
aF17.424
aF0.0
aF489.359
a(lp207
(lp208
F2.642627195251967
aF4.749377790016611
aF5.919972817826799
aa(lp209
F0.5992620684272176
aF0.6333449458869957
aF0.6678761766425275
aa(lp210
F-0.28628923208006435
aF-0.5354760152027301
aF-0.940496134351633
aag6
(g10
S'a\xdaK\xe7\x9aVP@'
p211
tp212
Rp213
tp214
a((lp215
I0
aF0.0
aF0.0
aF0.0
aF18.237
aF0.0
aF489.479
a(lp216
(lp217
F2.840907758537212
aF4.461955874263329
aF6.551247456312188
aa(lp218
F0.6056865434475868
aF0.6299610615217934
aF0.6769634065176605
aa(lp219
F-0.26500097344091095
aF-0.5085829815348197
aF-1.075769005813879
aag6
(g10
S'\xad)\xed\xad\xf5\x9dQ@'
p220
tp221
Rp222
tp223
a((lp224
I0
aF0.0
aF0.0
aF0.0
aF17.549
aF0.0
aF490.049
a(lp225
(lp226
F3.274071521095517
aF4.6311863273863505
aF5.894887727028795
aa(lp227
F0.603427101177209
aF0.6258291635404573
aF0.6636537594500967
aa(lp228
F-0.21190895018427686
aF-0.5537806039383338
aF-0.8974179030114361
aag6
(g10
S'\x07\x88\x11\xa0\xe9\xccP@'
p229
tp230
Rp231
tp232
a((lp233
I0
aF0.0
aF0.0
aF0.0
aF17.315
aF0.0
aF500.485
a(lp234
(lp235
F2.892070123230332
aF4.550272770096962
aF6.580437661320451
aa(lp236
F0.593442596235991
aF0.6264046980866655
aF0.6772698736452282
aa(lp237
F-0.24068775529097405
aF-0.5508335270394294
aF-0.7794211116456549
aag6
(g10
S'\xd9\xb2\xd7\xac\x10\x81P@'
p238
tp239
Rp240
tp241
a((lp242
I0
aF0.0
aF0.0
aF0.0
aF17.925
aF0.0
aF492.405
a(lp243
(lp244
F3.023923694657311
aF4.455871036463129
aF6.198241976709209
aa(lp245
F0.6057517132100438
aF0.6222518825170527
aF0.6624513544314815
aa(lp246
F-0.2362822202937126
aF-0.4625912694184752
aF-0.9119487205333361
aag6
(g10
S'\xd9+?\xd2\x81\x97P@'
p247
tp248
Rp249
tp250
a((lp251
I0
aF0.0
aF0.0
aF0.0
aF17.924
aF0.0
aF500.329
a(lp252
(lp253
F2.9622955918290845
aF4.691791988554345
aF5.924057226202136
aa(lp254
F0.5939120099067436
aF0.630463285479623
aF0.6608584032818136
aa(lp255
F-0.24140448559151556
aF-0.5237137086704865
aF-0.9168748391899996
aag6
(g10
S'\xa0^G\x07\xf6\xdaO@'
p256
tp257
Rp258
tp259
a((lp260
I0
aF0.0
aF0.0
aF0.0
aF18.972
aF0.0
aF499.703
a(lp261
(lp262
F2.5238703768575395
aF4.82679374447662
aF6.311848526002469
aa(lp263
F0.6103278553831242
aF0.6346157959332597
aF0.6776850636902473
aa(lp264
F-0.2999993771913789
aF-0.48374595270178106
aF-0.8225319981091659
aag6
(g10
S'\xd6\xf0@\xf2TGQ@'
p265
tp266
Rp267
tp268
a((lp269
I0
aF0.0
aF0.0
aF0.0
aF18.081
aF0.0
aF505.626
a(lp270
(lp271
F2.8248421877084535
aF4.320039316431519
aF5.820660410850449
aa(lp272
F0.5987034733533589
aF0.6264391626136979
aF0.6783468489307125
aa(lp273
F-0.3330498838784103
aF-0.4820979642100643
aF-1.0690185195888542
aag6
(g10
S'\n\x18\x9e+-GQ@'
p274
tp275
Rp276
tp277
a((lp278
I0
aF0.0
aF0.0
aF0.0
aF19.113
aF0.0
aF509.521
a(lp279
(lp280
F2.2568218447109394
aF4.344349861171981
aF5.965793722550023
aa(lp281
F0.5987671678266734
aF0.6332321446607776
aF0.6667369529076068
aa(lp282
F-0.1827175442236946
aF-0.5474838602653291
aF-0.8789908053942205
aag6
(g10
S'V\xec\\\x1bU\xaaP@'
p283
tp284
Rp285
tp286
a((lp287
I0
aF0.0
aF0.0
aF0.0
aF17.503
aF0.0
aF510.578
a(lp288
(lp289
F3.6457565500223357
aF4.896628229724346
aF5.9194151734209655
aa(lp290
F0.605004519510088
aF0.6328949111739599
aF0.6690416534233001
aa(lp291
F-0.24520770648598403
aF-0.5792151945264573
aF-0.9505707284647599
aag6
(g10
S'p\x86\x9c\xfa\xc2SQ@'
p292
tp293
Rp294
tp295
a((lp296
I0
aF0.0
aF0.0
aF0.0
aF17.659
aF0.0
aF515.272
a(lp297
(lp298
F2.9615630732133744
aF4.8032188325950465
aF6.303500709185487
aa(lp299
F0.5983841011369812
aF0.6271281189941484
aF0.6708772459155962
aa(lp300
F-0.2797898755988146
aF-0.5084063451131106
aF-0.9799597977508203
aag6
(g10
S'O\xb1\xc1\xcc\xa2\xb8Q@'
p301
tp302
Rp303
tp304
a((lp305
I0
aF0.0
aF0.0
aF0.0
aF17.831
aF0.0
aF535.96
a(lp306
(lp307
F3.1314179045008355
aF4.802159761538224
aF6.284327485386165
aa(lp308
F0.5989062476333492
aF0.6216050946154413
aF0.6648286610510218
aa(lp309
F-0.25151249997284064
aF-0.542124931203898
aF-0.8437966942621117
aag6
(g10
S'*A\xd5\xb1\xc7RQ@'
p310
tp311
Rp312
tp313
a((lp314
I0
aF0.0
aF0.0
aF0.0
aF17.19
aF0.0
aF530.198
a(lp315
(lp316
F2.7429959647934465
aF4.751706729810444
aF6.904727293543475
aa(lp317
F0.5970471397153404
aF0.6294645833499203
aF0.6772965567948673
aa(lp318
F-0.3207751701060521
aF-0.4851278632224614
aF-0.8886741637679888
aag6
(g10
S'\xe1\xb8Zi\xd7\xf9P@'
p319
tp320
Rp321
tp322
a((lp323
I0
aF0.0
aF0.0
aF0.0
aF18.628
aF0.0
aF540.883
a(lp324
(lp325
F3.0548536321809943
aF4.492609420457234
aF5.9472873710502085
aa(lp326
F0.5987234331942769
aF0.6256461783656894
aF0.6712187272578924
aa(lp327
F-0.2677824940512701
aF-0.4926844578074246
aF-0.9113635534936074
aag6
(g10
S'\xddh\x90\x8e6\xefP@'
p328
tp329
Rp330
tp331
a((lp332
I0
aF0.0
aF0.0
aF0.0
aF17.612
aF0.0
aF7039.815
a(lp333
(lp334
F2.8877780994210918
aF4.635719928501023
aF5.673990839809887
aa(lp335
F0.6050065709413511
aF0.6273386418099762
aF0.6749694844691803
aa(lp336
F-0.30712292309794353
aF-0.5402419592208627
aF-0.8842568099528566
aag6
(g10
S'Xv\xe4\xaa\xfc\x04Q@'
p337
tp338
Rp339
tp340
a((lp341
I0
aF0.0
aF0.0
aF0.0
aF18.898
aF0.0
aF455.037
a(lp342
(lp343
F3.279395659435736
aF4.691356157728381
aF6.280033701126426
aa(lp344
F0.5963806899084352
aF0.6282463168287319
aF0.6795237065545848
aa(lp345
F-0.28250284824214095
aF-0.5021071530014336
aF-0.8423429685088373
aag6
(g10
S'\xb7V\x95X\x9bBQ@'
p346
tp347
Rp348
tp349
a((lp350
I0
aF0.0
aF0.0
aF0.0
aF16.862
aF0.0
aF454.337
a(lp351
(lp352
F2.6115801780347487
aF4.551352794629112
aF5.868965532495526
aa(lp353
F0.6041883792109647
aF0.6270171000353263
aF0.6703597883837088
aa(lp354
F-0.24297831986008606
aF-0.488786698357501
aF-0.9135011070977617
aag6
(g10
S'~j-\xd7j\xceQ@'
p355
tp356
Rp357
tp358
a((lp359
I0
aF0.0
aF0.0
aF0.0
aF16.83
aF0.0
aF445.978
a(lp360
(lp361
F3.2887740202400533
aF4.282865982540537
aF6.033656520702347
aa(lp362
F0.5948217601110102
aF0.6338359154670895
aF0.6604362683159584
aa(lp363
F-0.23358394341006733
aF-0.4693609233666425
aF-0.8324194321945444
aag6
(g10
S'#\x93)\xed\xcb\xcbP@'
p364
tp365
Rp366
tp367
a((lp368
I0
aF0.0
aF0.0
aF0.0
aF16.831
aF0.0
aF446.89
a(lp369
(lp370
F2.6302148744238067
aF4.634684648116128
aF6.200733847165285
aa(lp371
F0.5954510827740596
aF0.6232154725085047
aF0.6547448455875363
aa(lp372
F-0.23841771964739858
aF-0.48011913297553294
aF-0.9301108597753823
aag6
(g10
S'\x95\xe7\xfc\xfd\x13\xe5P@'
p373
tp374
Rp375
tp376
a((lp377
I0
aF0.0
aF0.0
aF0.0
aF16.66
aF0.0
aF442.353
a(lp378
(lp379
F2.845816196431456
aF4.96061441418414
aF5.918393296084832
aa(lp380
F0.597968110924793
aF0.6261605633290689
aF0.676275181581388
aa(lp381
F-0.20871190657324196
aF-0.5489806326410733
aF-0.9544342300284093
aag6
(g10
S'\xad\x08r\xb3\x7f\xe6P@'
p382
tp383
Rp384
tp385
a((lp386
I0
aF0.0
aF0.0
aF0.0
aF16.956
aF0.0
aF-85952.843
a(lp387
(lp388
F3.092922273651791
aF4.252758573292034
aF6.31175391967748
aa(lp389
F0.6031831885461628
aF0.6337656242424967
aF0.6661454484333778
aa(lp390
F-0.2826858683193521
aF-0.46053813281804523
aF-0.9347984715516885
aag6
(g10
S"k\x91\xe5'o7Q@"
p391
tp392
Rp393
tp394
a((lp395
I0
aF0.0
aF0.0
aF0.0
aF17.268
aF0.0
aF450.058
a(lp396
(lp397
F2.6246193957650443
aF3.987511908885211
aF6.081420303267273
aa(lp398
F0.59448346485562
aF0.6320621710038922
aF0.6673622550056265
aa(lp399
F-0.24710187001354056
aF-0.4860933926151806
aF-0.9017013473881269
aag6
(g10
S'Fg\xf7\x02E\x10Q@'
p400
tp401
Rp402
tp403
a((lp404
I0
aF0.0
aF0.0
aF0.0
aF16.987
aF0.0
aF451.693
a(lp405
(lp406
F3.187140256678069
aF4.810501156898401
aF6.1159109417922375
aa(lp407
F0.600974770602663
aF0.6312269122721187
aF0.6708643479082318
aa(lp408
F-0.29685006883168086
aF-0.45798066149980354
aF-0.9190203500913132
aag6
(g10
S'cY\xa0\xb0\x82\x88Q@'
p409
tp410
Rp411
tp412
a((lp413
I0
aF0.0
aF0.0
aF0.0
aF17.08
aF0.0
aF456.594
a(lp414
(lp415
F3.050599650281275
aF4.838370008133013
aF6.533232011055526
aa(lp416
F0.6050055164703223
aF0.6266789731262521
aF0.6766852632786526
aa(lp417
F-0.2698134878174092
aF-0.5586495657311668
aF-0.9140391388162928
aag6
(g10
S'R\x15\x132>iQ@'
p418
tp419
Rp420
tp421
a((lp422
I0
aF0.0
aF0.0
aF0.0
aF16.925
aF0.0
aF455.504
a(lp423
(lp424
F3.4048226261004206
aF3.9912702902595107
aF5.99256801000507
aa(lp425
F0.6045560596916588
aF0.635696260841076
aF0.6780122125195406
aa(lp426
F-0.19819062158925188
aF-0.5526479548701902
aF-0.8529922270625843
aag6
(g10
S'\xe6\xbd\x8b\xdc\x9dcQ@'
p427
tp428
Rp429
tp430
a((lp431
I0
aF0.0
aF0.0
aF0.0
aF16.971
aF0.0
aF464.522
a(lp432
(lp433
F3.0543446642008187
aF4.632868237538179
aF5.958313878647571
aa(lp434
F0.5961059669644475
aF0.6223915004389464
aF0.6560723465943825
aa(lp435
F-0.27516403101938025
aF-0.5094854773484826
aF-1.0288759145499606
aag6
(g10
S'\x8d|\t\x06s\x11Q@'
p436
tp437
Rp438
tp439
a((lp440
I0
aF0.0
aF0.0
aF0.0
aF18.362
aF0.0
aF468.34
a(lp441
(lp442
F3.229116473072829
aF4.782436272430391
aF5.878724058114209
aa(lp443
F0.5964560875401385
aF0.6221942253305434
aF0.6663858754044417
aa(lp444
F-0.18693587879840987
aF-0.5351592071091936
aF-0.8519294370060597
aag6
(g10
S'\x89\xdb\xa9\x9f\x1d\xe3P@'
p445
tp446
Rp447
tp448
a((lp449
I0
aF0.0
aF0.0
aF0.0
aF19.284
aF0.016
aF474.794
a(lp450
(lp451
F2.7390256680218394
aF4.570689669165969
aF6.354510485782907
aa(lp452
F0.5936999280652584
aF0.6256156950844769
aF0.6610486474527044
aa(lp453
F-0.22058089269091685
aF-0.5285427969853411
aF-0.9649358696043312
aag6
(g10
S'\xfb\xde`N\xb9IP@'
p454
tp455
Rp456
tp457
a((lp458
I0
aF0.0
aF0.0
aF0.0
aF17.69
aF0.0
aF475.957
a(lp459
(lp460
F2.947179499365665
aF4.320930095996366
aF5.735474013708444
aa(lp461
F0.5961274170564146
aF0.6312339151092029
aF0.6701159905238011
aa(lp462
F-0.1833709820186551
aF-0.561444876471234
aF-0.8054886762111655
aag6
(g10
S'\x11*\x93%\xb7\x7fP@'
p463
tp464
Rp465
tp466
a((lp467
I0
aF0.0
aF0.0
aF0.0
aF17.331
aF0.0
aF471.089
a(lp468
(lp469
F2.550948780094536
aF4.871546558640204
aF5.828414656662298
aa(lp470
F0.5948861684211076
aF0.6288954828869034
aF0.6631887150123988
aa(lp471
F-0.22245373806816035
aF-0.512937017501516
aF-0.7847841472498237
aag6
(g10
S'\x91\xee6\x86\xa6\x15P@'
p472
tp473
Rp474
tp475
a((lp476
I0
aF0.0
aF0.0
aF0.0
aF18.112
aF0.0
aF465.62
a(lp477
(lp478
F2.9003509857409124
aF4.869235632728126
aF6.612125927605115
aa(lp479
F0.6050952772102168
aF0.6290861380925725
aF0.6735884094097832
aa(lp480
F-0.20399822700401404
aF-0.55307747277121
aF-1.1176730516420326
aag6
(g10
S'\xbfg\t\x01v\xaeN@'
p481
tp482
Rp483
tp484
a((lp485
I0
aF0.0
aF0.0
aF0.0
aF16.893
aF0.0
aF471.231
a(lp486
(lp487
F2.108720450893043
aF4.8530051776313705
aF6.112312243725145
aa(lp488
F0.6027383496935225
aF0.6304396694069608
aF0.6697643966570046
aa(lp489
F-0.22781577690335006
aF-0.4767599407514802
aF-0.926645615554826
aag6
(g10
S'h\x92\xfc\x95\\HQ@'
p490
tp491
Rp492
tp493
a((lp494
I0
aF0.0
aF0.0
aF0.0
aF18.721
aF0.0
aF479.637
a(lp495
(lp496
F3.033697830657053
aF4.715972626286686
aF6.209466386036443
aa(lp497
F0.5992657524822828
aF0.6368275966578235
aF0.6625972359104417
aa(lp498
F-0.21348588921040848
aF-0.5364472465174184
aF-0.7776198607552586
aag6
(g10
S'\x11\xa6\xd4\xcf\x12\xd7P@'
p499
tp500
Rp501
tp502
a((lp503
I0
aF0.0
aF0.0
aF0.0
aF16.972
aF0.0
aF479.202
a(lp504
(lp505
F2.970674803060388
aF4.447223636918619
aF6.074669463207011
aa(lp506
F0.5979416650367524
aF0.6356636154493821
aF0.6734120365390369
aa(lp507
F-0.2840063253777111
aF-0.4769288525239371
aF-0.877871844994339
aag6
(g10
S'\x80\xa0\xe6\x91{\x13M@'
p508
tp509
Rp510
tp511
a((lp512
I0
aF0.0
aF0.0
aF0.0
aF18.441
aF0.0
aF478.609
a(lp513
(lp514
F3.257899105629421
aF4.2985471698501865
aF6.0627436849728245
aa(lp515
F0.5935078693527203
aF0.6302053844591788
aF0.6774693356362653
aa(lp516
F-0.284091393401042
aF-0.4887303122994216
aF-0.9232002434449853
aag6
(g10
S'\x8c;\xceoc\xbeP@'
p517
tp518
Rp519
tp520
a((lp521
I0
aF0.0
aF0.0
aF0.0
aF17.284
aF0.0
aF482.128
a(lp522
(lp523
F2.943418056303389
aF4.163426342854884
aF6.041713599726611
aa(lp524
F0.5921219721192662
aF0.6329447125877252
aF0.6731356823942489
aa(lp525
F-0.29300857839619665
aF-0.5576917365997874
aF-0.903988075751028
aag6
(g10
S'PGmR%\xaeQ@'
p526
tp527
Rp528
tp529
a((lp530
I0
aF0.0
aF0.0
aF0.0
aF17.768
aF0.0
aF486.451
a(lp531
(lp532
F2.5753594337411574
aF4.552423568878268
aF6.0913249634802815
aa(lp533
F0.6040072896164178
aF0.6449987469337293
aF0.6644874712079184
aa(lp534
F-0.24867477424246995
aF-0.5776012984273184
aF-0.9040329828253193
aag6
(g10
S'\x98\xa5,\x15\xc5uQ@'
p535
tp536
Rp537
tp538
a((lp539
I0
aF0.0
aF0.0
aF0.0
aF17.816
aF0.0
aF481.49
a(lp540
(lp541
F2.6312865434353516
aF4.761186607009026
aF6.507187686408294
aa(lp542
F0.6015889039940139
aF0.6291867677017642
aF0.6684287775526478
aa(lp543
F-0.26122604059055826
aF-0.569305394304557
aF-0.8898285503649894
aag6
(g10
S'4\xf0\x0f\x1c\xf4\xa0Q@'
p544
tp545
Rp546
tp547
a((lp548
I0
aF0.0
aF0.0
aF0.0
aF17.425
aF0.0
aF489.669
a(lp549
(lp550
F2.815552299933903
aF4.071529853732863
aF6.04298625416948
aa(lp551
F0.5970669915420583
aF0.6326408381230358
aF0.674756248389052
aa(lp552
F-0.22442784516547107
aF-0.5173686594295158
aF-0.8758596947963961
aag6
(g10
S']\xe9\xcbu\xc1`Q@'
p553
tp554
Rp555
tp556
a((lp557
I0
aF0.0
aF0.0
aF0.0
aF17.581
aF0.0
aF494.027
a(lp558
(lp559
F2.5913090209545615
aF4.5700922249572855
aF6.229923667078367
aa(lp560
F0.6010632967977528
aF0.6330304265350969
aF0.682333012002732
aa(lp561
F-0.218786475515167
aF-0.5583204717713053
aF-0.9484568891591765
aag6
(g10
S'\xefAo\x9e\xb3\xb5P@'
p562
tp563
Rp564
tp565
a((lp566
I0
aF0.0
aF0.0
aF0.0
aF18.018
aF0.0
aF493.625
a(lp567
(lp568
F2.697573387236782
aF4.470256083995351
aF5.981701256952416
aa(lp569
F0.5947596157292325
aF0.6294701851851932
aF0.6656057828752324
aa(lp570
F-0.2199238707701689
aF-0.553182379083471
aF-0.8779179052345143
aag6
(g10
S'\xea$v\xb5\x1c\xeeQ@'
p571
tp572
Rp573
tp574
a((lp575
I0
aF0.0
aF0.0
aF0.0
aF17.05
aF0.0
aF495.096
a(lp576
(lp577
F2.2659148898159427
aF4.740734539918845
aF5.963746354277514
aa(lp578
F0.5943514853010237
aF0.6221496400034144
aF0.66661286119446
aa(lp579
F-0.2888529695735023
aF-0.529437307044224
aF-0.8859491793143122
aag6
(g10
S'n\x0b\xea\xb8w\x07Q@'
p580
tp581
Rp582
tp583
a((lp584
I0
aF0.0
aF0.0
aF0.0
aF17.425
aF0.0
aF497.995
a(lp585
(lp586
F2.867600064048621
aF4.5616421055487155
aF6.4235650337439285
aa(lp587
F0.5976671732370346
aF0.6321891164412121
aF0.6719950439596143
aa(lp588
F-0.2565309773640476
aF-0.5217987564417348
aF-0.9202158949714927
aag6
(g10
S'~\x00\x00\x80+\xd2M@'
p589
tp590
Rp591
tp592
a((lp593
I0
aF0.0
aF0.0
aF0.0
aF17.034
aF0.0
aF504.14
a(lp594
(lp595
F2.440383785438354
aF4.559329840351572
aF5.799461132968573
aa(lp596
F0.6053942209137565
aF0.6350619781306609
aF0.6684762479790209
aa(lp597
F-0.25398082906435815
aF-0.4290254071480982
aF-0.8602890612582256
aag6
(g10
S'S\xf8\r\xbe\x98YQ@'
p598
tp599
Rp600
tp601
a((lp602
I0
aF0.0
aF0.0
aF0.0
aF17.55
aF0.0
aF505.648
a(lp603
(lp604
F2.549420703330827
aF4.265570020641317
aF5.756947696878047
aa(lp605
F0.6041656728214754
aF0.6299140788681716
aF0.6787791427610337
aa(lp606
F-0.2802631291010024
aF-0.4816120536980486
aF-0.9147897620075484
aag6
(g10
S'VhVN!\xe2Q@'
p607
tp608
Rp609
tp610
a((lp611
I0
aF0.0
aF0.0
aF0.0
aF17.378
aF0.0
aF515.032
a(lp612
(lp613
F3.0487988919207316
aF4.534807298484439
aF6.004104297932918
aa(lp614
F0.6029175235618337
aF0.6313286341450101
aF0.6703510562815755
aa(lp615
F-0.2518625185456421
aF-0.49209798037833247
aF-0.8900429513257477
aag6
(g10
S'Y\xb4\x0c-\xe0JQ@'
p616
tp617
Rp618
tp619
a((lp620
I0
aF0.0
aF0.0
aF0.0
aF17.503
aF0.0
aF511.303
a(lp621
(lp622
F2.4523222085787744
aF4.7245787896713765
aF6.1878177794443365
aa(lp623
F0.5940290656734164
aF0.625836705938505
aF0.6779245982393605
aa(lp624
F-0.22597044076594383
aF-0.47450905423166123
aF-0.7931306227057683
aag6
(g10
S'\x17\xd8\xe3\x8f%\xe0P@'
p625
tp626
Rp627
tp628
a((lp629
I0
aF0.0
aF0.0
aF0.0
aF17.143
aF0.0
aF512.635
a(lp630
(lp631
F3.199147910053539
aF4.763476847991604
aF6.0533901896332845
aa(lp632
F0.6020095228899627
aF0.6254238731395932
aF0.647891027017167
aa(lp633
F-0.284217278181795
aF-0.4653225054468762
aF-0.9095210963586722
aag6
(g10
S'A\x9aI\xab\xa9$P@'
p634
tp635
Rp636
tp637
a((lp638
I0
aF0.0
aF0.0
aF0.0
aF17.08
aF0.0
aF514.974
a(lp639
(lp640
F2.7843091757532856
aF4.634457092883177
aF5.924083837603302
aa(lp641
F0.6004125283485411
aF0.6257161266637068
aF0.6696821772154908
aa(lp642
F-0.1441651452386389
aF-0.5388155428335375
aF-0.8296559318946461
aag6
(g10
S'\xdb\xe9\xd6\xdad8P@'
p643
tp644
Rp645
tp646
a((lp647
I0
aF0.0
aF0.0
aF0.0
aF18.206
aF0.0
aF513.384
a(lp648
(lp649
F3.127581868953403
aF4.744311723790104
aF6.280579321293434
aa(lp650
F0.6060063902269573
aF0.6311444901238924
aF0.6738210096108382
aa(lp651
F-0.3167282883413742
aF-0.5125383806506939
aF-0.7844682414660337
aag6
(g10
S'\x89T@\xe4\x95\xccP@'
p652
tp653
Rp654
tp655
a((lp656
I0
aF0.015
aF0.0
aF0.0
aF17.051
aF0.0
aF525.982
a(lp657
(lp658
F2.4397072126339037
aF4.674844915027815
aF5.809101568574284
aa(lp659
F0.5985903634835006
aF0.6361422013223287
aF0.6734064472505988
aa(lp660
F-0.2892800806312569
aF-0.48605614874651093
aF-0.9346681477562973
aag6
(g10
S'\xfd\x00\x184\xac\xb1P@'
p661
tp662
Rp663
tp664
a((lp665
I0
aF0.0
aF0.0
aF0.0
aF18.159
aF0.0
aF7170.9
a(lp666
(lp667
F2.955659976662434
aF4.472288583907221
aF5.813144994179808
aa(lp668
F0.6051878107023183
aF0.6373418248978447
aF0.6633774903679416
aa(lp669
F-0.19756214293496546
aF-0.4790235601405803
aF-0.8692458983268527
aag6
(g10
S'd-\x96\xf8)HQ@'
p670
tp671
Rp672
tp673
a((lp674
I0
aF0.0
aF0.0
aF0.0
aF20.613
aF0.0
aF7229.074
a(lp675
(lp676
F2.603561902859242
aF4.893658252686551
aF5.546734974502131
aa(lp677
F0.6004710945183465
aF0.6343619541242793
aF0.6678666476554759
aa(lp678
F-0.21912122661350747
aF-0.5171520173113976
aF-0.879343432466131
aag6
(g10
S'\xa5\x04kT.`Q@'
p679
tp680
Rp681
tp682
a((lp683
I0
aF0.0
aF0.0
aF0.0
aF21.238
aF0.0
aF6146.152
a(lp684
(lp685
F2.586223467876817
aF4.903409101037778
aF6.249057444909081
aa(lp686
F0.6046471956129414
aF0.6163220736115471
aF0.6586819406674235
aa(lp687
F-0.27077458416281996
aF-0.5121936041449558
aF-0.8916394928284362
aag6
(g10
S' :?T\x9e]Q@'
p688
tp689
Rp690
tp691
a.