(lp0
((lp1
I0
aF0.0
aF0.0
aF0.0
aF20.664
aF0.0
aF459.389
a(lp2
(lp3
F2.824757290689275
aF4.796077432317745
aF5.664080491746423
aa(lp4
F0.5947718690755001
aF0.6333439905357416
aF0.673380035769246
aa(lp5
F-0.29068641044366933
aF-0.4697697204822448
aF-0.9572379411113258
aacnumpy.core.multiarray
scalar
p6
(cnumpy
dtype
p7
(S'f8'
p8
I0
I1
tp9
Rp10
(I3
S'<'
p11
NNNI-1
I-1
I0
tp12
bS'\xaa\xb2[P28Q@'
p13
tp14
Rp15
tp16
a((lp17
I0
aF0.0
aF0.0
aF0.0
aF18.034
aF0.0
aF450.926
a(lp18
(lp19
F2.7151536634826585
aF4.377141710624778
aF6.278164356929389
aa(lp20
F0.5987201480826029
aF0.6335891896644268
aF0.667786425617745
aa(lp21
F-0.27650286364936594
aF-0.5268437320087304
aF-0.9719915767337429
aag6
(g10
S'\xe8_j\xdc\xacWQ@'
p22
tp23
Rp24
tp25
a((lp26
I0
aF0.0
aF0.0
aF0.0
aF18.425
aF0.0
aF445.167
a(lp27
(lp28
F2.807209969382743
aF4.767151333146222
aF6.147226485948314
aa(lp29
F0.6021276438951756
aF0.63006510786105
aF0.6729941733137338
aa(lp30
F-0.18966195142982206
aF-0.4800496978054079
aF-0.8833927909313437
aag6
(g10
S'F]\xc2\xd1\xec;M@'
p31
tp32
Rp33
tp34
a((lp35
I0
aF0.0
aF0.0
aF0.0
aF19.378
aF0.0
aF451.619
a(lp36
(lp37
F2.184360091173899
aF4.392989171264939
aF6.237573221442402
aa(lp38
F0.6003823283535329
aF0.6325073124395568
aF0.6646704062120866
aa(lp39
F-0.2525477784255786
aF-0.49939171877886185
aF-0.9608359517089692
aag6
(g10
S'uA3\xda\x84&Q@'
p40
tp41
Rp42
tp43
a((lp44
I0
aF0.0
aF0.0
aF0.0
aF18.831
aF0.0
aF449.649
a(lp45
(lp46
F2.7032513710500186
aF4.199503483371565
aF6.338231559667512
aa(lp47
F0.5988986705898482
aF0.6311345758818744
aF0.6617944544036126
aa(lp48
F-0.23473218548258257
aF-0.5315487097620195
aF-0.8198974325286097
aag6
(g10
S'\x00\xac@\xf1\xbf\x1dQ@'
p49
tp50
Rp51
tp52
a((lp53
I0
aF0.0
aF0.0
aF0.0
aF18.409
aF0.0
aF454.195
a(lp54
(lp55
F2.5527916057714823
aF4.908579087480985
aF6.256529831171529
aa(lp56
F0.597281028765604
aF0.6296491705885441
aF0.6650691355938195
aa(lp57
F-0.19767049432521963
aF-0.58464093821661
aF-0.8190219555533736
aag6
(g10
S'JX\xa8DL\xffP@'
p58
tp59
Rp60
tp61
a((lp62
I0
aF0.0
aF0.0
aF0.0
aF19.8
aF0.0
aF449.55
a(lp63
(lp64
F2.7500170576143055
aF4.310295406551293
aF6.0476534208689845
aa(lp65
F0.5991408836817964
aF0.6243672040672595
aF0.6727046784133444
aa(lp66
F-0.19656769915554465
aF-0.527721255603921
aF-0.9951616425082853
aag6
(g10
S"\xd0e#\xc2c'Q@"
p67
tp68
Rp69
tp70
a((lp71
I0
aF0.0
aF0.0
aF0.0
aF19.05
aF0.0
aF453.424
a(lp72
(lp73
F2.3568433268757603
aF4.955626612810979
aF6.361043463298485
aa(lp74
F0.6081258954247251
aF0.6345786694234467
aF0.6713583838294414
aa(lp75
F-0.2685371938626988
aF-0.5772263343282501
aF-0.9293923058101655
aag6
(g10
S'oPL\t\xc8\xd0P@'
p76
tp77
Rp78
tp79
a((lp80
I0
aF0.0
aF0.0
aF0.0
aF18.878
aF0.0
aF452.532
a(lp81
(lp82
F2.595767729694337
aF4.836033319549812
aF5.926099094727545
aa(lp83
F0.6025909360389303
aF0.6263974848783607
aF0.6634757655878172
aa(lp84
F-0.32629449855073944
aF-0.5275722533639337
aF-0.8953129348190725
aag6
(g10
S'Z\xd0\x97(2\xa2L@'
p85
tp86
Rp87
tp88
a((lp89
I0
aF0.0
aF0.0
aF0.0
aF18.846
aF0.0
aF458.292
a(lp90
(lp91
F2.7652503148991654
aF4.286948958821014
aF6.433468675472004
aa(lp92
F0.6045819849551102
aF0.634778995963926
aF0.6704761172994453
aa(lp93
F-0.2054887738829896
aF-0.46006461437097984
aF-0.8209240343031579
aag6
(g10
S'\x13\x13\xd6\t\x92SN@'
p94
tp95
Rp96
tp97
a((lp98
I0
aF0.0
aF0.0
aF0.0
aF19.659
aF0.0
aF456.498
a(lp99
(lp100
F3.132535311640791
aF4.579571006959159
aF6.027814011195368
aa(lp101
F0.6073647332939965
aF0.618943448265654
aF0.670336387129814
aa(lp102
F-0.2382356659955266
aF-0.5143844729729439
aF-0.962560876834777
aag6
(g10
S'\x9a\x936\xa1_\x03N@'
p103
tp104
Rp105
tp106
a((lp107
I0
aF0.0
aF0.0
aF0.0
aF19.456
aF0.0
aF462.028
a(lp108
(lp109
F2.648129262618301
aF4.189441770192568
aF6.2614531659870405
aa(lp110
F0.5925289666545535
aF0.6331627517468401
aF0.6748076391547827
aa(lp111
F-0.3727600092056225
aF-0.4910402944440368
aF-0.9403351730539781
aag6
(g10
S'\xd0\x02\x12a\x8cCL@'
p112
tp113
Rp114
tp115
a((lp116
I0
aF0.0
aF0.0
aF0.0
aF19.409
aF0.0
aF471.393
a(lp117
(lp118
F3.081614346740431
aF4.99716303431055
aF6.14974596947618
aa(lp119
F0.6057088706116946
aF0.6226838738390332
aF0.673895526576872
aa(lp120
F-0.2224071590879774
aF-0.6020421751688183
aF-0.8993519348222411
aag6
(g10
S'R\xa6\x04nU\xb4P@'
p121
tp122
Rp123
tp124
a((lp125
I0
aF0.0
aF0.0
aF0.0
aF21.941
aF0.0
aF472.861
a(lp126
(lp127
F3.236069858682372
aF4.924170056914692
aF6.0227228162006465
aa(lp128
F0.6084495137519984
aF0.6399103519291534
aF0.6707316010137145
aa(lp129
F-0.24114901465879932
aF-0.5222251960225234
aF-1.015775824979089
aag6
(g10
S'|\x1em#8NQ@'
p130
tp131
Rp132
tp133
a((lp134
I0
aF0.0
aF0.0
aF0.0
aF18.925
aF0.0
aF468.787
a(lp135
(lp136
F3.1408574546313677
aF4.453620096313397
aF5.905719778277636
aa(lp137
F0.6008373229758127
aF0.6268310526794432
aF0.6706857145257116
aa(lp138
F-0.228872406178207
aF-0.5212098558676681
aF-0.836796379524182
aag6
(g10
S'j\xeaL\n\xab\xa5P@'
p139
tp140
Rp141
tp142
a((lp143
I0
aF0.0
aF0.0
aF0.0
aF20.128
aF0.0
aF469.948
a(lp144
(lp145
F2.9080480860036744
aF4.689270633455373
aF5.958823628603175
aa(lp146
F0.5941590529199203
aF0.6328061448310929
aF0.6749777669981357
aa(lp147
F-0.3318748905463953
aF-0.4862302845818474
aF-0.9004450172310686
aag6
(g10
S'e\xe4\x8c\xf3\xb9\xbeP@'
p148
tp149
Rp150
tp151
a.