((lp0
I0
aF0.0
aF0.0
aF0.0
aF20.912
aF0.0
aF954.275
acnumpy.core.multiarray
scalar
p1
(cnumpy
dtype
p2
(S'f8'
p3
I0
I1
tp4
Rp5
(I3
S'<'
p6
NNNI-1
I-1
I0
tp7
bS'\xdb\x0e\x9b$P\x9fZ@'
p8
tp9
Rp10
g1
(g5
S'\x00\x00\x00\x00\x00\x00\x00\x00'
p11
tp12
Rp13
g1
(g5
S'R\xea\xa5<\xcd\xdc\xc6?'
p14
tp15
Rp16
F882.716
(lp17
F4.313
aF4.391
aF4.266
aF4.501
aF4.391
aF4.282
aF4.453
aF4.47
aF4.267
aF4.266
aF4.391
aF4.313
aF4.391
aF4.36
aF4.267
aF4.235
aF4.281
aF4.36
aF4.517
aF4.376
aF4.376
aF4.36
aF4.297
aF4.328
aF4.36
aF4.297
aF4.376
aF4.438
aF4.5
aF4.485
aF4.43
aF4.438
aF4.407
aF4.407
aF4.328
aF4.344
aF4.454
aF4.376
aF4.391
aF4.454
aF4.501
aF4.375
aF4.407
aF4.485
aF4.392
aF4.486
aF4.36
aF4.438
aF4.375
aF4.47
aF4.36
aF4.36
aF4.36
aF4.297
aF4.329
aF4.438
aF4.392
aF4.391
aF4.25
aF4.251
aF4.376
aF4.375
aF4.5
aF4.282
aF4.235
aF4.282
aF4.392
aF4.266
aF4.235
aF4.298
aF4.5
aF4.188
aF4.141
aF4.142
aF4.142
aF4.22
aF4.188
aF4.251
aF4.235
aF4.423
aF4.126
aF4.173
aF4.047
aF4.094
aF4.188
aF4.281
aF4.281
aF4.094
aF4.297
aF4.345
aF4.141
aF4.188
aF4.157
aF4.251
aF4.125
aF4.203
aF4.219
aF4.266
aF4.423
aF4.313
aF4.376
aF4.36
aF4.454
aF4.456
aF4.376
aF4.344
aF4.329
aF4.391
aF4.423
aF4.313
aF4.423
aF4.344
aF4.282
aF4.376
aF4.47
aF4.329
aF4.344
aF4.392
aF4.313
aF4.313
aF4.266
aF4.313
aF4.297
aF4.626
aF4.329
aF4.345
aF4.298
aF4.298
aF4.297
aF4.406
aF4.36
aF4.313
aF4.36
aF4.438
aF4.345
aF4.391
aF4.298
aF4.298
aF4.532
aF4.344
aF4.501
aF4.485
aF4.391
aF4.439
aF4.391
aF4.517
aF4.391
aF4.485
aF4.438
aF4.438
aF4.391
aF4.486
aF4.485
aF4.392
aF4.406
aF4.407
aF4.469
aF4.454
aF4.438
aF4.407
aF4.407
aF4.376
aF4.422
aF4.36
aF4.36
aF4.704
aF4.454
aF4.47
aF4.423
aF4.375
aF4.36
aF4.454
aF4.438
aF4.398
aF4.36
aF4.391
aF4.407
aF4.438
aF4.422
aF4.376
aF4.501
aF4.422
aF4.563
aF4.407
aF4.313
aF4.422
aF4.36
aF4.375
aF4.313
aF4.517
aF4.407
aF4.344
aF4.266
aF4.36
aF4.298
aF4.376
aF4.407
aF4.235
aF4.344
aF4.282
atp18
.